target datalayout = "e-m:e-p270:32:32-p271:32:32-p272:64:64-i64:64-i128:128-f80:128-n8:16:32:64-S128"
target triple = "x86_64-pc-linux-gnu"

%struct.Gia_Man_t_ = type { ptr, ptr, i32, i32, i32, i32, ptr, ptr, i32, i32, i32, ptr, ptr, %struct.Vec_Int_t_, %struct.Vec_Int_t_, i32, i32, i32, %struct.Vec_Int_t_, ptr, ptr, ptr, i32, i32, i32, i32, ptr, ptr, ptr, ptr, ptr, i32, i32, ptr, i32, ptr, ptr, ptr, ptr, ptr, ptr, ptr, ptr, ptr, ptr, ptr, ptr, ptr, ptr, ptr, ptr, ptr, ptr, %struct.Vec_Int_t_, %struct.Vec_Int_t_, ptr, ptr, ptr, ptr, ptr, ptr, ptr, ptr, ptr, ptr, ptr, ptr, ptr, ptr, ptr, ptr, ptr, ptr, ptr, ptr, ptr, i32, float, float, ptr, ptr, i32, ptr, ptr, ptr, ptr, ptr, ptr, ptr, ptr, ptr, ptr, ptr, ptr, ptr, ptr, ptr, i64, i64, ptr, ptr, i32, i32, i32, i32, i32, i32, i32, i32, i32, i32, i32, i32, ptr, ptr, ptr, ptr, ptr, ptr, ptr, ptr, i32, i32, i32, ptr, i32, i32, ptr, ptr, ptr, ptr, ptr, ptr, i32, i32, ptr, %struct.Vec_Int_t_, %struct.Vec_Int_t_, %struct.Vec_Int_t_, ptr, ptr, ptr, i32, i32, i32, i32, ptr, ptr, ptr, ptr, ptr }
%struct.Vec_Int_t_ = type { i32, i32, ptr }
%struct.Gia_Obj_t_ = type <{ i64, i32 }>
%struct.Gia_Rpr_t_ = type { i32 }

; Function Attrs: inlinehint nounwind uwtable
define internal i32 @Gia_ObjRepr(ptr noundef %0, i32 noundef %1) #1 {
  %3 = alloca ptr, align 8
  %4 = alloca i32, align 4
  store ptr %0, ptr %3, align 8, !tbaa !3
  store i32 %1, ptr %4, align 4, !tbaa !33
  %5 = load ptr, ptr %3, align 8, !tbaa !3
  %6 = getelementptr inbounds nuw %struct.Gia_Man_t_, ptr %5, i32 0, i32 27
  %7 = load ptr, ptr %6, align 8, !tbaa !53
  %8 = load i32, ptr %4, align 4, !tbaa !33
  %9 = sext i32 %8 to i64
  %10 = getelementptr inbounds %struct.Gia_Rpr_t_, ptr %7, i64 %9
  %11 = load i32, ptr %10, align 4
  %12 = and i32 %11, 268435455
  ret i32 %12
}

; Function Attrs: inlinehint nounwind uwtable
define internal i32 @Gia_ObjNext(ptr noundef %0, i32 noundef %1) #1 {
  %3 = alloca ptr, align 8
  %4 = alloca i32, align 4
  store ptr %0, ptr %3, align 8, !tbaa !3
  store i32 %1, ptr %4, align 4, !tbaa !33
  %5 = load ptr, ptr %3, align 8, !tbaa !3
  %6 = getelementptr inbounds nuw %struct.Gia_Man_t_, ptr %5, i32 0, i32 28
  %7 = load ptr, ptr %6, align 8, !tbaa !56
  %8 = load i32, ptr %4, align 4, !tbaa !33
  %9 = sext i32 %8 to i64
  %10 = getelementptr inbounds i32, ptr %7, i64 %9
  %11 = load i32, ptr %10, align 4, !tbaa !33
  ret i32 %11
}

; Function Attrs: inlinehint nounwind uwtable
define internal void @Gia_ObjSetTravIdPreviousId(ptr noundef %0, i32 noundef %1) #1 {
  %3 = alloca ptr, align 8
  %4 = alloca i32, align 4
  store ptr %0, ptr %3, align 8, !tbaa !3
  store i32 %1, ptr %4, align 4, !tbaa !33
  %5 = load ptr, ptr %3, align 8, !tbaa !3
  %6 = getelementptr inbounds nuw %struct.Gia_Man_t_, ptr %5, i32 0, i32 24
  %7 = load i32, ptr %6, align 8, !tbaa !243
  %8 = sub nsw i32 %7, 1
  %9 = load ptr, ptr %3, align 8, !tbaa !3
  %10 = getelementptr inbounds nuw %struct.Gia_Man_t_, ptr %9, i32 0, i32 80
  %11 = load ptr, ptr %10, align 8, !tbaa !242
  %12 = load i32, ptr %4, align 4, !tbaa !33
  %13 = sext i32 %12 to i64
  %14 = getelementptr inbounds i32, ptr %11, i64 %13
  store i32 %8, ptr %14, align 4, !tbaa !33
  ret void
}

; Function Attrs: inlinehint nounwind uwtable
define internal i32 @Abc_Lit2Var(i32 noundef %0) #1 {
  %2 = alloca i32, align 4
  store i32 %0, ptr %2, align 4, !tbaa !33
  %3 = load i32, ptr %2, align 4, !tbaa !33
  %4 = ashr i32 %3, 1
  ret i32 %4
}

; Function Attrs: inlinehint nounwind uwtable
define internal ptr @Gia_ManObj(ptr noundef %0, i32 noundef %1) #1 {
  %3 = alloca ptr, align 8
  %4 = alloca i32, align 4
  store ptr %0, ptr %3, align 8, !tbaa !3
  store i32 %1, ptr %4, align 4, !tbaa !33
  %5 = load ptr, ptr %3, align 8, !tbaa !3
  %6 = getelementptr inbounds nuw %struct.Gia_Man_t_, ptr %5, i32 0, i32 6
  %7 = load ptr, ptr %6, align 8, !tbaa !43
  %8 = load i32, ptr %4, align 4, !tbaa !33
  %9 = sext i32 %8 to i64
  %10 = getelementptr inbounds %struct.Gia_Obj_t_, ptr %7, i64 %9
  ret ptr %10
}

; Function Attrs: inlinehint nounwind uwtable
define internal i32 @Gia_ObjIsHead(ptr noundef %0, i32 noundef %1) #1 {
  %3 = alloca ptr, align 8
  %4 = alloca i32, align 4
  store ptr %0, ptr %3, align 8, !tbaa !3
  store i32 %1, ptr %4, align 4, !tbaa !33
  %5 = load ptr, ptr %3, align 8, !tbaa !3
  %6 = load i32, ptr %4, align 4, !tbaa !33
  %7 = call i32 @Gia_ObjRepr(ptr noundef %5, i32 noundef %6)
  %8 = icmp eq i32 %7, 268435455
  br i1 %8, label %9, label %14

9:                                                ; preds = %2
  %10 = load ptr, ptr %3, align 8, !tbaa !3
  %11 = load i32, ptr %4, align 4, !tbaa !33
  %12 = call i32 @Gia_ObjNext(ptr noundef %10, i32 noundef %11)
  %13 = icmp sgt i32 %12, 0
  br label %14

14:                                               ; preds = %9, %2
  %15 = phi i1 [ false, %2 ], [ %13, %9 ]
  %16 = zext i1 %15 to i32
  ret i32 %16
}

; Function Attrs: inlinehint nounwind uwtable
define internal i32 @Gia_ManObjNum(ptr noundef %0) #1 {
  %2 = alloca ptr, align 8
  store ptr %0, ptr %2, align 8, !tbaa !3
  %3 = load ptr, ptr %2, align 8, !tbaa !3
  %4 = getelementptr inbounds nuw %struct.Gia_Man_t_, ptr %3, i32 0, i32 4
  %5 = load i32, ptr %4, align 8, !tbaa !37
  ret i32 %5
}

; Function Attrs: nounwind uwtable
define i32 @Cec4_ManMarkIndependentClasses(ptr noundef %0, ptr noundef %1) #0 {
  %3 = alloca ptr, align 8
  %4 = alloca ptr, align 8
  %5 = alloca i32, align 4
  %6 = alloca i32, align 4
  %7 = alloca i32, align 4
  %8 = alloca i32, align 4
  %9 = alloca i32, align 4
  store ptr %0, ptr %3, align 8, !tbaa !3
  store ptr %1, ptr %4, align 8, !tbaa !3
  call void @llvm.lifetime.start.p0(i64 4, ptr %5) #12
  call void @llvm.lifetime.start.p0(i64 4, ptr %6) #12
  call void @llvm.lifetime.start.p0(i64 4, ptr %7) #12
  call void @llvm.lifetime.start.p0(i64 4, ptr %8) #12
  call void @llvm.lifetime.start.p0(i64 4, ptr %9) #12
  store i32 0, ptr %9, align 4, !tbaa !33
  %10 = load ptr, ptr %3, align 8, !tbaa !3
  call void @Gia_ManCleanMark01(ptr noundef %10)
  store i32 1, ptr %6, align 4, !tbaa !33
  br label %11

11:                                               ; preds = %81, %2
  %12 = load i32, ptr %6, align 4, !tbaa !33
  %13 = load ptr, ptr %3, align 8, !tbaa !3
  %14 = call i32 @Gia_ManObjNum(ptr noundef %13)
  %15 = icmp slt i32 %12, %14
  br i1 %15, label %16, label %84

16:                                               ; preds = %11
  %17 = load ptr, ptr %3, align 8, !tbaa !3
  %18 = load i32, ptr %6, align 4, !tbaa !33
  %19 = call i32 @Gia_ObjIsHead(ptr noundef %17, i32 noundef %18)
  %20 = icmp ne i32 %19, 0
  br i1 %20, label %22, label %21

21:                                               ; preds = %16
  br label %80

22:                                               ; preds = %16
  %23 = load ptr, ptr %4, align 8, !tbaa !3
  call void @Gia_ManIncrementTravId(ptr noundef %23)
  %24 = load ptr, ptr %4, align 8, !tbaa !3
  call void @Gia_ManIncrementTravId(ptr noundef %24)
  %25 = load ptr, ptr %3, align 8, !tbaa !3
  %26 = load i32, ptr %6, align 4, !tbaa !33
  %27 = call ptr @Gia_ManObj(ptr noundef %25, i32 noundef %26)
  %28 = getelementptr inbounds nuw %struct.Gia_Obj_t_, ptr %27, i32 0, i32 1
  %29 = load i32, ptr %28, align 4, !tbaa !39
  %30 = call i32 @Abc_Lit2Var(i32 noundef %29)
  store i32 %30, ptr %5, align 4, !tbaa !33
  %31 = load ptr, ptr %4, align 8, !tbaa !3
  %32 = load i32, ptr %5, align 4, !tbaa !33
  %33 = call i32 @Cec4_ManMarkIndependentClasses_rec(ptr noundef %31, i32 noundef %32)
  store i32 %33, ptr %8, align 4, !tbaa !33
  %34 = load ptr, ptr %4, align 8, !tbaa !3
  %35 = load i32, ptr %5, align 4, !tbaa !33
  call void @Gia_ObjSetTravIdPreviousId(ptr noundef %34, i32 noundef %35)
  %36 = load ptr, ptr %3, align 8, !tbaa !3
  %37 = getelementptr inbounds nuw %struct.Gia_Man_t_, ptr %36, i32 0, i32 27
  %38 = load ptr, ptr %37, align 8, !tbaa !53
  %39 = load i32, ptr %6, align 4, !tbaa !33
  %40 = sext i32 %39 to i64
  %41 = getelementptr inbounds %struct.Gia_Rpr_t_, ptr %38, i64 %40
  %42 = load i32, ptr %41, align 4
  %43 = and i32 %42, -1073741825
  %44 = or i32 %43, 1073741824
  store i32 %44, ptr %41, align 4
  %45 = load ptr, ptr %3, align 8, !tbaa !3
  %46 = load i32, ptr %6, align 4, !tbaa !33
  %47 = call i32 @Gia_ObjNext(ptr noundef %45, i32 noundef %46)
  store i32 %47, ptr %7, align 4, !tbaa !33
  br label %48

48:                                               ; preds = %75, %22
  %49 = load i32, ptr %7, align 4, !tbaa !33
  %50 = icmp sgt i32 %49, 0
  br i1 %50, label %51, label %79

51:                                               ; preds = %48
  %52 = load ptr, ptr %3, align 8, !tbaa !3
  %53 = load i32, ptr %7, align 4, !tbaa !33
  %54 = call ptr @Gia_ManObj(ptr noundef %52, i32 noundef %53)
  %55 = getelementptr inbounds nuw %struct.Gia_Obj_t_, ptr %54, i32 0, i32 1
  %56 = load i32, ptr %55, align 4, !tbaa !39
  %57 = call i32 @Abc_Lit2Var(i32 noundef %56)
  store i32 %57, ptr %5, align 4, !tbaa !33
  %58 = load ptr, ptr %4, align 8, !tbaa !3
  %59 = load i32, ptr %5, align 4, !tbaa !33
  %60 = call i32 @Cec4_ManMarkIndependentClasses_rec(ptr noundef %58, i32 noundef %59)
  %61 = icmp ne i32 %60, 0
  br i1 %61, label %62, label %72

62:                                               ; preds = %51
  %63 = load ptr, ptr %3, align 8, !tbaa !3
  %64 = getelementptr inbounds nuw %struct.Gia_Man_t_, ptr %63, i32 0, i32 27
  %65 = load ptr, ptr %64, align 8, !tbaa !53
  %66 = load i32, ptr %7, align 4, !tbaa !33
  %67 = sext i32 %66 to i64
  %68 = getelementptr inbounds %struct.Gia_Rpr_t_, ptr %65, i64 %67
  %69 = load i32, ptr %68, align 4
  %70 = and i32 %69, -1073741825
  %71 = or i32 %70, 1073741824
  store i32 %71, ptr %68, align 4
  store i32 1, ptr %9, align 4, !tbaa !33
  br label %72

72:                                               ; preds = %62, %51
  %73 = load ptr, ptr %4, align 8, !tbaa !3
  %74 = load i32, ptr %5, align 4, !tbaa !33
  call void @Gia_ObjSetTravIdPreviousId(ptr noundef %73, i32 noundef %74)
  br label %75

75:                                               ; preds = %72
  %76 = load ptr, ptr %3, align 8, !tbaa !3
  %77 = load i32, ptr %7, align 4, !tbaa !33
  %78 = call i32 @Gia_ObjNext(ptr noundef %76, i32 noundef %77)
  store i32 %78, ptr %7, align 4, !tbaa !33
  br label %48, !llvm.loop !244

79:                                               ; preds = %48
  br label %80

80:                                               ; preds = %79, %21
  br label %81

81:                                               ; preds = %80
  %82 = load i32, ptr %6, align 4, !tbaa !33
  %83 = add nsw i32 %82, 1
  store i32 %83, ptr %6, align 4, !tbaa !33
  br label %11, !llvm.loop !245

84:                                               ; preds = %11
  %85 = load i32, ptr %9, align 4, !tbaa !33
  call void @llvm.lifetime.end.p0(i64 4, ptr %9) #12
  call void @llvm.lifetime.end.p0(i64 4, ptr %8) #12
  call void @llvm.lifetime.end.p0(i64 4, ptr %7) #12
  call void @llvm.lifetime.end.p0(i64 4, ptr %6) #12
  call void @llvm.lifetime.end.p0(i64 4, ptr %5) #12
  ret i32 %85
}