; Function Attrs: nounwind uwtable
define range(i32 0, 2) i32 @Cec4_ManMarkIndependentClasses(ptr noundef %0, ptr noundef %1) local_unnamed_addr #0 {
  tail call void @Gia_ManCleanMark01(ptr noundef %0) #31
  %3 = getelementptr i8, ptr %0, i64 24
  %.val44 = load i32, ptr %3, align 8, !tbaa !12
  %4 = icmp sgt i32 %.val44, 1
  br i1 %4, label %.lr.ph47, label %._crit_edge

.lr.ph47:                                         ; preds = %2
  %5 = getelementptr i8, ptr %0, i64 192
  %6 = getelementptr i8, ptr %0, i64 200
  %7 = getelementptr i8, ptr %0, i64 32
  %8 = getelementptr i8, ptr %1, i64 176
  %9 = getelementptr i8, ptr %1, i64 616
  br label %10

10:                                               ; preds = %.lr.ph47, %Gia_ObjIsHead.exit.thread
  %indvars.iv = phi i64 [ 1, %.lr.ph47 ], [ %indvars.iv.next, %Gia_ObjIsHead.exit.thread ]
  %.046 = phi i32 [ 0, %.lr.ph47 ], [ %.3, %Gia_ObjIsHead.exit.thread ]
  %.val.i = load ptr, ptr %5, align 8, !tbaa !49
  %11 = getelementptr inbounds nuw %struct.Gia_Rpr_t_, ptr %.val.i, i64 %indvars.iv
  %12 = load i32, ptr %11, align 4
  %13 = and i32 %12, 268435455
  %14 = icmp eq i32 %13, 268435455
  br i1 %14, label %Gia_ObjIsHead.exit, label %Gia_ObjIsHead.exit.thread

Gia_ObjIsHead.exit:                               ; preds = %10
  %.val3.i = load ptr, ptr %6, align 8, !tbaa !54
  %15 = getelementptr inbounds nuw i32, ptr %.val3.i, i64 %indvars.iv
  %16 = load i32, ptr %15, align 4, !tbaa !32
  %17 = icmp slt i32 %16, 1
  br i1 %17, label %Gia_ObjIsHead.exit.thread, label %18

18:                                               ; preds = %Gia_ObjIsHead.exit
  tail call void @Gia_ManIncrementTravId(ptr noundef %1) #31
  tail call void @Gia_ManIncrementTravId(ptr noundef %1) #31
  %.val33 = load ptr, ptr %7, align 8, !tbaa !36
  %19 = getelementptr inbounds nuw %struct.Gia_Obj_t_, ptr %.val33, i64 %indvars.iv, i32 1
  %20 = load i32, ptr %19, align 4, !tbaa !37
  %21 = ashr i32 %20, 1
  %22 = tail call i32 @Cec4_ManMarkIndependentClasses_rec(ptr noundef %1, i32 noundef %21)
  %.val38 = load i32, ptr %8, align 8, !tbaa !225
  %.val39 = load ptr, ptr %9, align 8, !tbaa !226
  %23 = add nsw i32 %.val38, -1
  %24 = sext i32 %21 to i64
  %25 = getelementptr inbounds i32, ptr %.val39, i64 %24
  store i32 %23, ptr %25, align 4, !tbaa !32
  %26 = load ptr, ptr %5, align 8, !tbaa !49
  %27 = getelementptr inbounds nuw %struct.Gia_Rpr_t_, ptr %26, i64 %indvars.iv
  %28 = load i32, ptr %27, align 4
  %29 = or i32 %28, 1073741824
  store i32 %29, ptr %27, align 4
  %.val35 = load ptr, ptr %6, align 8, !tbaa !54
  %30 = getelementptr inbounds nuw i32, ptr %.val35, i64 %indvars.iv
  %.02941 = load i32, ptr %30, align 4, !tbaa !32
  %31 = icmp sgt i32 %.02941, 0
  br i1 %31, label %.lr.ph, label %Gia_ObjIsHead.exit.thread

.lr.ph:                                           ; preds = %18, %42
  %.02943 = phi i32 [ %.029, %42 ], [ %.02941, %18 ]
  %.142 = phi i32 [ %.2, %42 ], [ %.046, %18 ]
  %.val32 = load ptr, ptr %7, align 8, !tbaa !36
  %32 = zext nneg i32 %.02943 to i64
  %33 = getelementptr inbounds nuw %struct.Gia_Obj_t_, ptr %.val32, i64 %32, i32 1
  %34 = load i32, ptr %33, align 4, !tbaa !37
  %35 = ashr i32 %34, 1
  %36 = tail call i32 @Cec4_ManMarkIndependentClasses_rec(ptr noundef nonnull %1, i32 noundef %35)
  %.not31 = icmp eq i32 %36, 0
  br i1 %.not31, label %42, label %37

37:                                               ; preds = %.lr.ph
  %38 = load ptr, ptr %5, align 8, !tbaa !49
  %39 = getelementptr inbounds nuw %struct.Gia_Rpr_t_, ptr %38, i64 %32
  %40 = load i32, ptr %39, align 4
  %41 = or i32 %40, 1073741824
  store i32 %41, ptr %39, align 4
  br label %42

42:                                               ; preds = %37, %.lr.ph
  %.2 = phi i32 [ 1, %37 ], [ %.142, %.lr.ph ]
  %.val36 = load i32, ptr %8, align 8, !tbaa !225
  %.val37 = load ptr, ptr %9, align 8, !tbaa !226
  %43 = add nsw i32 %.val36, -1
  %44 = sext i32 %35 to i64
  %45 = getelementptr inbounds i32, ptr %.val37, i64 %44
  store i32 %43, ptr %45, align 4, !tbaa !32
  %.val34 = load ptr, ptr %6, align 8, !tbaa !54
  %46 = getelementptr inbounds nuw i32, ptr %.val34, i64 %32
  %.029 = load i32, ptr %46, align 4, !tbaa !32
  %47 = icmp sgt i32 %.029, 0
  br i1 %47, label %.lr.ph, label %Gia_ObjIsHead.exit.thread, !llvm.loop !227

Gia_ObjIsHead.exit.thread:                        ; preds = %42, %18, %10, %Gia_ObjIsHead.exit
  %.3 = phi i32 [ %.046, %Gia_ObjIsHead.exit ], [ %.046, %10 ], [ %.046, %18 ], [ %.2, %42 ]
  %indvars.iv.next = add nuw nsw i64 %indvars.iv, 1
  %.val = load i32, ptr %3, align 8, !tbaa !12
  %48 = sext i32 %.val to i64
  %49 = icmp slt i64 %indvars.iv.next, %48
  br i1 %49, label %10, label %._crit_edge, !llvm.loop !228

._crit_edge:                                      ; preds = %Gia_ObjIsHead.exit.thread, %2
  %.0.lcssa = phi i32 [ 0, %2 ], [ %.3, %Gia_ObjIsHead.exit.thread ]
  ret i32 %.0.lcssa
}